target datalayout = "e-m:e-p270:32:32-p271:32:32-p272:64:64-i64:64-i128:128-f80:128-n8:16:32:64-S128"
target triple = "x86_64-pc-linux-gnu"

%struct.LogicalRepWorker = type { i32, i64, i8, i16, ptr, i32, i32, i32, i32, i8, i64, i8, ptr, i32, i8, i64, i64, i64, i64, i64 }
%struct.StringInfoData = type { ptr, i32, i32, i32 }

@MyLogicalRepWorker = external global ptr, align 8
@LogicalStreamingContext = internal global ptr null, align 8
@stream_fd = internal global ptr null, align 8

; Function Attrs: nounwind uwtable
define internal void @stream_close_file() #0 {
  %1 = load ptr, ptr @stream_fd, align 8
  call void @BufFileClose(ptr noundef %1)
  store ptr null, ptr @stream_fd, align 8
  ret void
}

; Function Attrs: nounwind uwtable
define dso_local void @stream_stop_internal(i32 noundef %0) #0 {
  %2 = alloca i32, align 4
  store i32 %0, ptr %2, align 4
  %3 = load ptr, ptr @MyLogicalRepWorker, align 8
  %4 = getelementptr inbounds nuw %struct.LogicalRepWorker, ptr %3, i32 0, i32 7
  %5 = load i32, ptr %4, align 8
  %6 = load i32, ptr %2, align 4
  call void @subxact_info_write(i32 noundef %5, i32 noundef %6)
  call void @stream_close_file()
  call void @CommitTransactionCommand()
  %7 = load ptr, ptr @LogicalStreamingContext, align 8
  call void @MemoryContextReset(ptr noundef %7)
  ret void
}

; Function Attrs: nounwind uwtable
define internal void @stream_write_change(i8 noundef signext %0, ptr noundef %1) #0 {
  %3 = alloca i8, align 1
  %4 = alloca ptr, align 8
  %5 = alloca i32, align 4
  store i8 %0, ptr %3, align 1
  store ptr %1, ptr %4, align 8
  call void @llvm.lifetime.start.p0(i64 4, ptr %5) #12
  %6 = load ptr, ptr %4, align 8
  %7 = getelementptr inbounds nuw %struct.StringInfoData, ptr %6, i32 0, i32 1
  %8 = load i32, ptr %7, align 8
  %9 = load ptr, ptr %4, align 8
  %10 = getelementptr inbounds nuw %struct.StringInfoData, ptr %9, i32 0, i32 3
  %11 = load i32, ptr %10, align 8
  %12 = sub i32 %8, %11
  %13 = sext i32 %12 to i64
  %14 = add i64 %13, 1
  %15 = trunc i64 %14 to i32
  store i32 %15, ptr %5, align 4
  %16 = load ptr, ptr @stream_fd, align 8
  call void @BufFileWrite(ptr noundef %16, ptr noundef %5, i64 noundef 4)
  %17 = load ptr, ptr @stream_fd, align 8
  call void @BufFileWrite(ptr noundef %17, ptr noundef %3, i64 noundef 1)
  %18 = load ptr, ptr %4, align 8
  %19 = getelementptr inbounds nuw %struct.StringInfoData, ptr %18, i32 0, i32 1
  %20 = load i32, ptr %19, align 8
  %21 = load ptr, ptr %4, align 8
  %22 = getelementptr inbounds nuw %struct.StringInfoData, ptr %21, i32 0, i32 3
  %23 = load i32, ptr %22, align 8
  %24 = sub i32 %20, %23
  store i32 %24, ptr %5, align 4
  %25 = load ptr, ptr @stream_fd, align 8
  %26 = load ptr, ptr %4, align 8
  %27 = getelementptr inbounds nuw %struct.StringInfoData, ptr %26, i32 0, i32 0
  %28 = load ptr, ptr %27, align 8
  %29 = load ptr, ptr %4, align 8
  %30 = getelementptr inbounds nuw %struct.StringInfoData, ptr %29, i32 0, i32 3
  %31 = load i32, ptr %30, align 8
  %32 = sext i32 %31 to i64
  %33 = getelementptr inbounds i8, ptr %28, i64 %32
  %34 = load i32, ptr %5, align 4
  %35 = sext i32 %34 to i64
  call void @BufFileWrite(ptr noundef %25, ptr noundef %33, i64 noundef %35)
  call void @llvm.lifetime.end.p0(i64 4, ptr %5) #12
  ret void
}

; Function Attrs: nounwind uwtable
define internal void @stream_open_and_write_change(i32 noundef %0, i8 noundef signext %1, ptr noundef %2) #0 {
  %4 = alloca i32, align 4
  %5 = alloca i8, align 1
  %6 = alloca ptr, align 8
  store i32 %0, ptr %4, align 4
  store i8 %1, ptr %5, align 1
  store ptr %2, ptr %6, align 8
  %7 = load ptr, ptr @stream_fd, align 8
  %8 = icmp ne ptr %7, null
  br i1 %8, label %11, label %9

9:                                                ; preds = %3
  %10 = load i32, ptr %4, align 4
  call void @stream_start_internal(i32 noundef %10, i1 noundef zeroext false)
  br label %11

11:                                               ; preds = %9, %3
  %12 = load i8, ptr %5, align 1
  %13 = load ptr, ptr %6, align 8
  call void @stream_write_change(i8 noundef signext %12, ptr noundef %13)
  %14 = load i32, ptr %4, align 4
  call void @stream_stop_internal(i32 noundef %14)
  ret void
}