; Function Attrs: nounwind uwtable
define internal fastcc void @stream_open_and_write_change(i32 noundef %0, i8 noundef signext range(i8 65, 113) %1, ptr noundef nonnull readonly captures(none) %2) unnamed_addr #0 {
  %4 = alloca i8, align 1
  %5 = alloca i32, align 4
  %6 = load ptr, ptr @stream_fd, align 8
  %.not = icmp eq ptr %6, null
  br i1 %.not, label %7, label %8

7:                                                ; preds = %3
  tail call void @stream_start_internal(i32 noundef %0, i1 noundef zeroext false)
  %.pre = load ptr, ptr @stream_fd, align 8
  br label %8

8:                                                ; preds = %7, %3
  %9 = phi ptr [ %.pre, %7 ], [ %6, %3 ]
  call void @llvm.lifetime.start.p0(i64 1, ptr nonnull %4)
  store i8 %1, ptr %4, align 1
  call void @llvm.lifetime.start.p0(i64 4, ptr nonnull %5) #17
  %10 = getelementptr inbounds nuw i8, ptr %2, i64 8
  %11 = load i32, ptr %10, align 8
  %12 = getelementptr inbounds nuw i8, ptr %2, i64 16
  %13 = load i32, ptr %12, align 8
  %14 = add i32 %11, 1
  %15 = sub i32 %14, %13
  store i32 %15, ptr %5, align 4
  call void @BufFileWrite(ptr noundef %9, ptr noundef nonnull %5, i64 noundef 4) #17
  %16 = load ptr, ptr @stream_fd, align 8
  call void @BufFileWrite(ptr noundef %16, ptr noundef nonnull %4, i64 noundef 1) #17
  %17 = load i32, ptr %10, align 8
  %18 = load i32, ptr %12, align 8
  %19 = sub i32 %17, %18
  store i32 %19, ptr %5, align 4
  %20 = load ptr, ptr @stream_fd, align 8
  %21 = load ptr, ptr %2, align 8
  %22 = sext i32 %18 to i64
  %23 = getelementptr inbounds i8, ptr %21, i64 %22
  %24 = sext i32 %19 to i64
  call void @BufFileWrite(ptr noundef %20, ptr noundef %23, i64 noundef %24) #17
  call void @llvm.lifetime.end.p0(i64 4, ptr nonnull %5) #17
  call void @llvm.lifetime.end.p0(i64 1, ptr nonnull %4)
  %25 = load ptr, ptr @MyLogicalRepWorker, align 8
  %26 = getelementptr inbounds nuw i8, ptr %25, i64 40
  %27 = load i32, ptr %26, align 8
  call fastcc void @subxact_info_write(i32 noundef %27, i32 noundef %0)
  %28 = load ptr, ptr @stream_fd, align 8
  call void @BufFileClose(ptr noundef %28) #17
  store ptr null, ptr @stream_fd, align 8
  call void @CommitTransactionCommand() #17
  %29 = load ptr, ptr @LogicalStreamingContext, align 8
  call void @MemoryContextReset(ptr noundef %29) #17
  ret void
}